; ModuleID = '21/202.c'
source_filename = "21/202.c"
target datalayout = "e-m:e-p270:32:32-p271:32:32-p272:64:64-i64:64-f80:128-n8:16:32:64-S128"
target triple = "x86_64-pc-linux-gnu"

@.str = private unnamed_addr constant [3 x i8] c"%d\00", align 1
@.str.1 = private unnamed_addr constant [4 x i8] c"%d\0A\00", align 1
@.str.2 = private unnamed_addr constant [7 x i8] c"%d,%d\0A\00", align 1

; Function Attrs: noinline nounwind uwtable
define dso_local i32 @main() #0 {
  %1 = alloca i32, align 4
  %2 = alloca i32, align 4
  %3 = alloca i32, align 4
  %4 = alloca i32, align 4
  %5 = alloca [10000 x i32], align 16
  %6 = alloca float, align 4
  %7 = alloca float, align 4
  %8 = alloca float, align 4
  %9 = alloca float, align 4
  %10 = alloca float, align 4
  %11 = alloca float, align 4
  %12 = alloca float, align 4
  store i32 0, i32* %1, align 4
  store float 0.000000e+00, float* %6, align 4
  store float 0.000000e+00, float* %8, align 4
  %13 = call i32 (i8*, ...) @__isoc99_scanf(i8* getelementptr inbounds ([3 x i8], [3 x i8]* @.str, i64 0, i64 0), i32* %2)
  store i32 0, i32* %3, align 4
  br label %14

14:                                               ; preds = %30, %0
  %15 = load i32, i32* %3, align 4
  %16 = load i32, i32* %2, align 4
  %17 = icmp slt i32 %15, %16
  br i1 %17, label %18, label %33

18:                                               ; preds = %14
  %19 = load i32, i32* %3, align 4
  %20 = sext i32 %19 to i64
  %21 = getelementptr inbounds [10000 x i32], [10000 x i32]* %5, i64 0, i64 %20
  %22 = call i32 (i8*, ...) @__isoc99_scanf(i8* getelementptr inbounds ([3 x i8], [3 x i8]* @.str, i64 0, i64 0), i32* %21)
  %23 = load float, float* %6, align 4
  %24 = load i32, i32* %3, align 4
  %25 = sext i32 %24 to i64
  %26 = getelementptr inbounds [10000 x i32], [10000 x i32]* %5, i64 0, i64 %25
  %27 = load i32, i32* %26, align 4
  %28 = sitofp i32 %27 to float
  %29 = fadd float %23, %28
  store float %29, float* %6, align 4
  br label %30

30:                                               ; preds = %18
  %31 = load i32, i32* %3, align 4
  %32 = add nsw i32 %31, 1
  store i32 %32, i32* %3, align 4
  br label %14

33:                                               ; preds = %14
  %34 = load float, float* %6, align 4
  %35 = load i32, i32* %2, align 4
  %36 = sitofp i32 %35 to float
  %37 = fdiv float %34, %36
  store float %37, float* %7, align 4
  %38 = load float, float* %7, align 4
  store float %38, float* %10, align 4
  %39 = load float, float* %7, align 4
  store float %39, float* %9, align 4
  store i32 0, i32* %4, align 4
  br label %40

40:                                               ; preds = %74, %33
  %41 = load i32, i32* %4, align 4
  %42 = load i32, i32* %2, align 4
  %43 = icmp slt i32 %41, %42
  br i1 %43, label %44, label %77

44:                                               ; preds = %40
  %45 = load i32, i32* %4, align 4
  %46 = sext i32 %45 to i64
  %47 = getelementptr inbounds [10000 x i32], [10000 x i32]* %5, i64 0, i64 %46
  %48 = load i32, i32* %47, align 4
  %49 = sitofp i32 %48 to float
  %50 = load float, float* %10, align 4
  %51 = fcmp ogt float %49, %50
  br i1 %51, label %52, label %58

52:                                               ; preds = %44
  %53 = load i32, i32* %4, align 4
  %54 = sext i32 %53 to i64
  %55 = getelementptr inbounds [10000 x i32], [10000 x i32]* %5, i64 0, i64 %54
  %56 = load i32, i32* %55, align 4
  %57 = sitofp i32 %56 to float
  store float %57, float* %10, align 4
  br label %73

58:                                               ; preds = %44
  %59 = load i32, i32* %4, align 4
  %60 = sext i32 %59 to i64
  %61 = getelementptr inbounds [10000 x i32], [10000 x i32]* %5, i64 0, i64 %60
  %62 = load i32, i32* %61, align 4
  %63 = sitofp i32 %62 to float
  %64 = load float, float* %9, align 4
  %65 = fcmp olt float %63, %64
  br i1 %65, label %66, label %72

66:                                               ; preds = %58
  %67 = load i32, i32* %4, align 4
  %68 = sext i32 %67 to i64
  %69 = getelementptr inbounds [10000 x i32], [10000 x i32]* %5, i64 0, i64 %68
  %70 = load i32, i32* %69, align 4
  %71 = sitofp i32 %70 to float
  store float %71, float* %9, align 4
  br label %72

72:                                               ; preds = %66, %58
  br label %73

73:                                               ; preds = %72, %52
  br label %74

74:                                               ; preds = %73
  %75 = load i32, i32* %4, align 4
  %76 = add nsw i32 %75, 1
  store i32 %76, i32* %4, align 4
  br label %40

77:                                               ; preds = %40
  %78 = load float, float* %10, align 4
  %79 = load float, float* %7, align 4
  %80 = fsub float %78, %79
  store float %80, float* %11, align 4
  %81 = load float, float* %7, align 4
  %82 = load float, float* %9, align 4
  %83 = fsub float %81, %82
  store float %83, float* %12, align 4
  %84 = load float, float* %11, align 4
  %85 = load float, float* %12, align 4
  %86 = fcmp ogt float %84, %85
  br i1 %86, label %87, label %91

87:                                               ; preds = %77
  %88 = load float, float* %10, align 4
  %89 = fptosi float %88 to i32
  %90 = call i32 (i8*, ...) @printf(i8* getelementptr inbounds ([4 x i8], [4 x i8]* @.str.1, i64 0, i64 0), i32 %89)
  br label %106

91:                                               ; preds = %77
  %92 = load float, float* %11, align 4
  %93 = load float, float* %12, align 4
  %94 = fcmp olt float %92, %93
  br i1 %94, label %95, label %99

95:                                               ; preds = %91
  %96 = load float, float* %9, align 4
  %97 = fptosi float %96 to i32
  %98 = call i32 (i8*, ...) @printf(i8* getelementptr inbounds ([4 x i8], [4 x i8]* @.str.1, i64 0, i64 0), i32 %97)
  br label %105

99:                                               ; preds = %91
  %100 = load float, float* %9, align 4
  %101 = fptosi float %100 to i32
  %102 = load float, float* %10, align 4
  %103 = fptosi float %102 to i32
  %104 = call i32 (i8*, ...) @printf(i8* getelementptr inbounds ([7 x i8], [7 x i8]* @.str.2, i64 0, i64 0), i32 %101, i32 %103)
  br label %105

105:                                              ; preds = %99, %95
  br label %106

106:                                              ; preds = %105, %87
  ret i32 0
}

declare dso_local i32 @__isoc99_scanf(i8*, ...) #1

declare dso_local i32 @printf(i8*, ...) #1


!llvm.module.flags = !{!0}
!llvm.ident = !{!1}

!0 = !{i32 1, !"wchar_size", i32 4}
!1 = !{!"clang version 10.0.0-4ubuntu1 "}
